; Function Attrs: mustprogress uwtable
define void @uloc_setDefault_77(ptr noundef %0, ptr noundef readonly captures(none) %1) local_unnamed_addr #1 {
  %3 = load i32, ptr %1, align 4, !tbaa !13
  %4 = icmp slt i32 %3, 1
  br i1 %4, label %5, label %6

5:                                                ; preds = %2
  tail call void @locale_set_default_77(ptr noundef %0)
  br label %6

6:                                                ; preds = %2, %5
  ret void
}